; Function Attrs: mustprogress uwtable
define void @_ZN7openvdb5v11_06points12AttributeSetC2Ev(ptr noundef nonnull align 8 dereferenceable(40) %this) unnamed_addr #3 align 2 personality ptr @__gxx_personality_v0 {
entry:
  %call = tail call noalias noundef nonnull dereferenceable(240) ptr @_Znwm(i64 noundef 240) #26
  invoke void @_ZN7openvdb5v11_06points12AttributeSet10DescriptorC1Ev(ptr noundef nonnull align 8 dereferenceable(240) %call)
          to label %invoke.cont unwind label %lpad

invoke.cont:                                      ; preds = %entry
  store ptr %call, ptr %this, align 8
  %_M_refcount.i.i = getelementptr inbounds i8, ptr %this, i64 8
  tail call void @_ZNSt14__shared_countILN9__gnu_cxx12_Lock_policyE2EEC2IPN7openvdb5v11_06points12AttributeSet10DescriptorEEET_(ptr noundef nonnull align 8 dereferenceable(8) %_M_refcount.i.i, ptr noundef nonnull %call)
  %mAttrs = getelementptr inbounds i8, ptr %this, i64 16
  tail call void @llvm.memset.p0.i64(ptr noundef nonnull align 8 dereferenceable(24) %mAttrs, i8 0, i64 24, i1 false)
  ret void

lpad:                                             ; preds = %entry
  %0 = landingpad { ptr, i32 }
          cleanup
  tail call void @_ZdlPv(ptr noundef nonnull %call) #27
  resume { ptr, i32 } %0
}